target datalayout = "e-m:e-p270:32:32-p271:32:32-p272:64:64-i64:64-i128:128-f80:128-n8:16:32:64-S128"
target triple = "x86_64-pc-linux-gnu"

%struct.ARKodeMemRec = type { ptr, double, ptr, i32, i32, double, double, ptr, i32, double, ptr, i32, i32, ptr, ptr, i32, ptr, ptr, i32, ptr, ptr, ptr, ptr, ptr, ptr, ptr, ptr, ptr, ptr, ptr, ptr, ptr, ptr, ptr, i32, ptr, ptr, i32, ptr, i32, ptr, ptr, ptr, ptr, ptr, ptr, ptr, ptr, ptr, ptr, ptr, ptr, ptr, ptr, ptr, ptr, ptr, ptr, ptr, ptr, ptr, ptr, ptr, ptr, ptr, ptr, i32, ptr, ptr, ptr, ptr, ptr, ptr, ptr, i32, ptr, ptr, ptr, i32, ptr, ptr, ptr, ptr, ptr, ptr, ptr, i32, i32, i32, i32, double, double, double, double, double, double, double, double, double, double, i32, ptr, i64, i32, i32, i32, i32, i64, i64, i32, i64, i64, i64, i64, i64, i64, i64, double, double, double, double, double, i32, double, double, i32, i32, i32, i32, i32, i32, i32, i32, ptr, i32, ptr, ptr, ptr, ptr, i32, i32, i32 }

@.str = private unnamed_addr constant [115 x i8] c"generated/home/dtcxzyw/WorkSpace/Projects/compilers/llvm-opt-benchmark/bench/sundials/sundials/src/arkode/arkode.c\00", align 1
@.str.1 = private unnamed_addr constant [27 x i8] c"arkode_mem = NULL illegal.\00", align 1
@.str.2 = private unnamed_addr constant [35 x i8] c"Attempt to call before ARKodeInit.\00", align 1
@__func__.ARKodeSStolerances = private unnamed_addr constant [19 x i8] c"ARKodeSStolerances\00", align 1
@.str.7 = private unnamed_addr constant [20 x i8] c"reltol < 0 illegal.\00", align 1
@.str.8 = private unnamed_addr constant [44 x i8] c"abstol has negative component(s) (illegal).\00", align 1

; Function Attrs: nounwind uwtable
define i32 @ARKodeSStolerances(ptr noundef %0, double noundef %1, double noundef %2) #0 {
  %4 = alloca i32, align 4
  %5 = alloca ptr, align 8
  %6 = alloca double, align 8
  %7 = alloca double, align 8
  %8 = alloca ptr, align 8
  %9 = alloca i32, align 4
  store ptr %0, ptr %5, align 8, !tbaa !3
  store double %1, ptr %6, align 8, !tbaa !9
  store double %2, ptr %7, align 8, !tbaa !9
  call void @llvm.lifetime.start.p0(i64 8, ptr %8) #10
  %10 = load ptr, ptr %5, align 8, !tbaa !3
  %11 = icmp eq ptr %10, null
  br i1 %11, label %12, label %13

12:                                               ; preds = %3
  call void (ptr, i32, i32, ptr, ptr, ptr, ...) @arkProcessError(ptr noundef null, i32 noundef -21, i32 noundef 249, ptr noundef @__func__.ARKodeSStolerances, ptr noundef @.str, ptr noundef @.str.1)
  store i32 -21, ptr %4, align 4
  store i32 1, ptr %9, align 4
  br label %52

13:                                               ; preds = %3
  %14 = load ptr, ptr %5, align 8, !tbaa !3
  store ptr %14, ptr %8, align 8, !tbaa !11
  %15 = load ptr, ptr %8, align 8, !tbaa !11
  %16 = getelementptr inbounds nuw %struct.ARKodeMemRec, ptr %15, i32 0, i32 127
  %17 = load i32, ptr %16, align 8, !tbaa !13
  %18 = icmp eq i32 %17, 0
  br i1 %18, label %19, label %21

19:                                               ; preds = %13
  %20 = load ptr, ptr %8, align 8, !tbaa !11
  call void (ptr, i32, i32, ptr, ptr, ptr, ...) @arkProcessError(ptr noundef %20, i32 noundef -23, i32 noundef 258, ptr noundef @__func__.ARKodeSStolerances, ptr noundef @.str, ptr noundef @.str.2)
  store i32 -23, ptr %4, align 4
  store i32 1, ptr %9, align 4
  br label %52

21:                                               ; preds = %13
  %22 = load double, ptr %6, align 8, !tbaa !9
  %23 = fcmp olt double %22, 0.000000e+00
  br i1 %23, label %24, label %26

24:                                               ; preds = %21
  %25 = load ptr, ptr %8, align 8, !tbaa !11
  call void (ptr, i32, i32, ptr, ptr, ptr, ...) @arkProcessError(ptr noundef %25, i32 noundef -22, i32 noundef 264, ptr noundef @__func__.ARKodeSStolerances, ptr noundef @.str, ptr noundef @.str.7)
  store i32 -22, ptr %4, align 4
  store i32 1, ptr %9, align 4
  br label %52

26:                                               ; preds = %21
  %27 = load double, ptr %7, align 8, !tbaa !9
  %28 = fcmp olt double %27, 0.000000e+00
  br i1 %28, label %29, label %31

29:                                               ; preds = %26
  %30 = load ptr, ptr %8, align 8, !tbaa !11
  call void (ptr, i32, i32, ptr, ptr, ptr, ...) @arkProcessError(ptr noundef %30, i32 noundef -22, i32 noundef 270, ptr noundef @__func__.ARKodeSStolerances, ptr noundef @.str, ptr noundef @.str.8)
  store i32 -22, ptr %4, align 4
  store i32 1, ptr %9, align 4
  br label %52

31:                                               ; preds = %26
  %32 = load double, ptr %7, align 8, !tbaa !9
  %33 = fcmp oeq double %32, 0.000000e+00
  %34 = zext i1 %33 to i32
  %35 = load ptr, ptr %8, align 8, !tbaa !11
  %36 = getelementptr inbounds nuw %struct.ARKodeMemRec, ptr %35, i32 0, i32 8
  store i32 %34, ptr %36, align 8, !tbaa !78
  %37 = load double, ptr %6, align 8, !tbaa !9
  %38 = load ptr, ptr %8, align 8, !tbaa !11
  %39 = getelementptr inbounds nuw %struct.ARKodeMemRec, ptr %38, i32 0, i32 5
  store double %37, ptr %39, align 8, !tbaa !79
  %40 = load double, ptr %7, align 8, !tbaa !9
  %41 = load ptr, ptr %8, align 8, !tbaa !11
  %42 = getelementptr inbounds nuw %struct.ARKodeMemRec, ptr %41, i32 0, i32 6
  store double %40, ptr %42, align 8, !tbaa !80
  %43 = load ptr, ptr %8, align 8, !tbaa !11
  %44 = getelementptr inbounds nuw %struct.ARKodeMemRec, ptr %43, i32 0, i32 3
  store i32 0, ptr %44, align 8, !tbaa !81
  %45 = load ptr, ptr %8, align 8, !tbaa !11
  %46 = getelementptr inbounds nuw %struct.ARKodeMemRec, ptr %45, i32 0, i32 12
  store i32 0, ptr %46, align 4, !tbaa !82
  %47 = load ptr, ptr %8, align 8, !tbaa !11
  %48 = getelementptr inbounds nuw %struct.ARKodeMemRec, ptr %47, i32 0, i32 13
  store ptr @arkEwtSetSS, ptr %48, align 8, !tbaa !83
  %49 = load ptr, ptr %8, align 8, !tbaa !11
  %50 = load ptr, ptr %8, align 8, !tbaa !11
  %51 = getelementptr inbounds nuw %struct.ARKodeMemRec, ptr %50, i32 0, i32 14
  store ptr %49, ptr %51, align 8, !tbaa !84
  store i32 0, ptr %4, align 4
  store i32 1, ptr %9, align 4
  br label %52

52:                                               ; preds = %31, %29, %24, %19, %12
  call void @llvm.lifetime.end.p0(i64 8, ptr %8) #10
  %53 = load i32, ptr %4, align 4
  ret i32 %53
}