; Function Attrs: nounwind uwtable
define range(i32 -23, 1) i32 @ARKodeSStolerances(ptr noundef %0, double noundef %1, double noundef %2) local_unnamed_addr #0 {
  %4 = icmp eq ptr %0, null
  br i1 %4, label %5, label %6

5:                                                ; preds = %3
  tail call void (ptr, i32, i32, ptr, ptr, ptr, ...) @arkProcessError(ptr noundef null, i32 noundef -21, i32 noundef 249, ptr noundef nonnull @__func__.ARKodeSStolerances, ptr noundef nonnull @.str, ptr noundef nonnull @.str.1)
  br label %27

6:                                                ; preds = %3
  %7 = getelementptr inbounds nuw i8, ptr %0, i64 960
  %8 = load i32, ptr %7, align 8, !tbaa !3
  %9 = icmp eq i32 %8, 0
  br i1 %9, label %10, label %11

10:                                               ; preds = %6
  tail call void (ptr, i32, i32, ptr, ptr, ptr, ...) @arkProcessError(ptr noundef nonnull %0, i32 noundef -23, i32 noundef 258, ptr noundef nonnull @__func__.ARKodeSStolerances, ptr noundef nonnull @.str, ptr noundef nonnull @.str.2)
  br label %27

11:                                               ; preds = %6
  %12 = fcmp olt double %1, 0.000000e+00
  br i1 %12, label %13, label %14

13:                                               ; preds = %11
  tail call void (ptr, i32, i32, ptr, ptr, ptr, ...) @arkProcessError(ptr noundef nonnull %0, i32 noundef -22, i32 noundef 264, ptr noundef nonnull @__func__.ARKodeSStolerances, ptr noundef nonnull @.str, ptr noundef nonnull @.str.7)
  br label %27

14:                                               ; preds = %11
  %15 = fcmp olt double %2, 0.000000e+00
  br i1 %15, label %16, label %17

16:                                               ; preds = %14
  tail call void (ptr, i32, i32, ptr, ptr, ptr, ...) @arkProcessError(ptr noundef nonnull %0, i32 noundef -22, i32 noundef 270, ptr noundef nonnull @__func__.ARKodeSStolerances, ptr noundef nonnull @.str, ptr noundef nonnull @.str.8)
  br label %27

17:                                               ; preds = %14
  %18 = fcmp oeq double %2, 0.000000e+00
  %19 = zext i1 %18 to i32
  %20 = getelementptr inbounds nuw i8, ptr %0, i64 56
  store i32 %19, ptr %20, align 8, !tbaa !84
  %21 = getelementptr inbounds nuw i8, ptr %0, i64 32
  store double %1, ptr %21, align 8, !tbaa !85
  %22 = getelementptr inbounds nuw i8, ptr %0, i64 40
  store double %2, ptr %22, align 8, !tbaa !86
  %23 = getelementptr inbounds nuw i8, ptr %0, i64 24
  store i32 0, ptr %23, align 8, !tbaa !87
  %24 = getelementptr inbounds nuw i8, ptr %0, i64 84
  store i32 0, ptr %24, align 4, !tbaa !88
  %25 = getelementptr inbounds nuw i8, ptr %0, i64 88
  store ptr @arkEwtSetSS, ptr %25, align 8, !tbaa !89
  %26 = getelementptr inbounds nuw i8, ptr %0, i64 96
  store ptr %0, ptr %26, align 8, !tbaa !90
  br label %27

27:                                               ; preds = %17, %16, %13, %10, %5
  %.0 = phi i32 [ -21, %5 ], [ -23, %10 ], [ -22, %13 ], [ -22, %16 ], [ 0, %17 ]
  ret i32 %.0
}